; Function Attrs: nounwind uwtable
define void @lv_display_set_physical_resolution(ptr noundef %0, i32 noundef %1, i32 noundef %2) local_unnamed_addr #0 {
  %4 = icmp eq ptr %0, null
  br i1 %4, label %5, label %.thread

5:                                                ; preds = %3
  %6 = load ptr, ptr getelementptr inbounds nuw (i8, ptr @lv_global, i64 40), align 8, !tbaa !33
  %7 = icmp eq ptr %6, null
  br i1 %7, label %12, label %.thread

.thread:                                          ; preds = %3, %5
  %.08 = phi ptr [ %6, %5 ], [ %0, %3 ]
  %8 = getelementptr inbounds nuw i8, ptr %.08, i64 8
  store i32 %1, ptr %8, align 8, !tbaa !17
  %9 = getelementptr inbounds nuw i8, ptr %.08, i64 12
  store i32 %2, ptr %9, align 4, !tbaa !18
  %10 = getelementptr inbounds nuw i8, ptr %.08, i64 784
  %11 = load ptr, ptr %10, align 8, !tbaa !47
  tail call void @lv_obj_invalidate(ptr noundef %11) #13
  br label %12

12:                                               ; preds = %5, %.thread
  ret void
}